(lp0
(lp1
F0.008189674562458199
aF-0.042863023561585445
aF0.03077754367113582
aa(lp2
F0.014540136380781332
aF-0.05758948133793629
aF0.06986087700446914
aa(lp3
F0.028169819052620254
aF-0.06372031050250893
aF0.11108309922669136
aa(lp4
F0.039198213789905956
aF-0.07975266969392814
aF0.15673587700446912
aa(lp5
F0.06203906959386449
aF-0.0958820183324407
aF0.19501365478224694
aa(lp6
F0.25377420943528783
aF-0.10798070486834754
aF0.2231942103378025
aa(lp7
F0.2963613182728767
aF-0.11758340229212827
aF0.23097466395655877
aa(lp8
F0.35881678829673747
aF-0.12510186318597427
aF0.22540521951211437
aa(lp9
F0.41184945386244787
aF-0.12971981174716296
aF0.2003774417343366
aa(lp10
F0.6010828496943725
aF-0.13783130531984178
aF0.1581120496924927
aa(lp11
F0.6684964769099783
aF-0.14268959794970026
aF0.1101537163591594
aa(lp12
F0.6935105063690251
aF-0.1521991693093866
aF0.05836204969249274
aa(lp13
F0.7554706093341331
aF-0.16885976262629898
aF0.014537350148356814
aa.(lp0
(lp1
F0.1280489559404584
aF0.010055070391644105
aF0.0157847746203131
aa(lp2
F0.12796377969438533
aF-0.0005253159859294199
aF0.04990360991284108
aa(lp3
F0.07504939086415463
aF-0.005508533372732494
aF0.09130638769061887
aa(lp4
F-0.09646676010628352
aF-0.003619777926146761
aF0.12655638769061883
aa(lp5
F-0.12431288046552058
aF0.000631429838012787
aF0.15217727746992302
aa(lp6
F-0.20667012858818173
aF0.01826625404926796
aF0.16228346767504806
aa(lp7
F-0.23278789782339715
aF0.036635621510626604
aF0.1449779121194925
aa(lp8
F-0.426053683621919
aF0.06518382445706938
aF0.11296402323060362
aa(lp9
F-0.47782166412047966
aF0.09682468275557177
aF0.07574180100838143
aa(lp10
F-0.4986510434431883
aF0.13708671958982332
aF0.038811245452825875
aa(lp11
F-0.5138688367949236
aF0.14851600208636617
aF0.01676834420919076
aa.